; Function Attrs: mustprogress uwtable
define noundef nonnull align 8 dereferenceable(49) ptr @_ZN8proxygen20ZstdStreamCompressor8getCodecEv(ptr nocapture noundef nonnull align 8 dereferenceable(22) %this) local_unnamed_addr #1 align 2 personality ptr @__gxx_personality_v0 {
entry:
  %ref.tmp = alloca %"class.std::unique_ptr", align 8
  %codec_ = getelementptr inbounds i8, ptr %this, i64 8
  %0 = load ptr, ptr %codec_, align 8
  %cmp.i.not = icmp eq ptr %0, null
  br i1 %cmp.i.not, label %if.then, label %if.end

if.then:                                          ; preds = %entry
  %compressionLevel_ = getelementptr inbounds i8, ptr %this, i64 16
  %1 = load i32, ptr %compressionLevel_, align 8
  call void @_ZN5folly2io14getStreamCodecENS0_9CodecTypeEi(ptr nonnull sret(%"class.std::unique_ptr") align 8 %ref.tmp, i32 noundef 8, i32 noundef %1)
  %2 = load ptr, ptr %ref.tmp, align 8
  store ptr null, ptr %ref.tmp, align 8
  %3 = load ptr, ptr %codec_, align 8
  store ptr %2, ptr %codec_, align 8
  %tobool.not.i.i.i.i = icmp eq ptr %3, null
  br i1 %tobool.not.i.i.i.i, label %_ZNSt10unique_ptrIN5folly2io11StreamCodecESt14default_deleteIS2_EED2Ev.exit, label %_ZNSt10unique_ptrIN5folly2io11StreamCodecESt14default_deleteIS2_EEaSEOS5_.exit

_ZNSt10unique_ptrIN5folly2io11StreamCodecESt14default_deleteIS2_EEaSEOS5_.exit: ; preds = %if.then
  %vtable.i.i.i.i.i = load ptr, ptr %3, align 8
  %vfn.i.i.i.i.i = getelementptr inbounds i8, ptr %vtable.i.i.i.i.i, i64 8
  %4 = load ptr, ptr %vfn.i.i.i.i.i, align 8
  call void %4(ptr noundef nonnull align 8 dereferenceable(49) %3) #8
  %.pr = load ptr, ptr %ref.tmp, align 8
  %cmp.not.i = icmp eq ptr %.pr, null
  br i1 %cmp.not.i, label %_ZNSt10unique_ptrIN5folly2io11StreamCodecESt14default_deleteIS2_EED2Ev.exit, label %_ZNKSt14default_deleteIN5folly2io11StreamCodecEEclEPS2_.exit.i

_ZNKSt14default_deleteIN5folly2io11StreamCodecEEclEPS2_.exit.i: ; preds = %_ZNSt10unique_ptrIN5folly2io11StreamCodecESt14default_deleteIS2_EEaSEOS5_.exit
  %vtable.i.i = load ptr, ptr %.pr, align 8
  %vfn.i.i = getelementptr inbounds i8, ptr %vtable.i.i, i64 8
  %5 = load ptr, ptr %vfn.i.i, align 8
  call void %5(ptr noundef nonnull align 8 dereferenceable(49) %.pr) #8
  br label %_ZNSt10unique_ptrIN5folly2io11StreamCodecESt14default_deleteIS2_EED2Ev.exit

_ZNSt10unique_ptrIN5folly2io11StreamCodecESt14default_deleteIS2_EED2Ev.exit: ; preds = %if.then, %_ZNSt10unique_ptrIN5folly2io11StreamCodecESt14default_deleteIS2_EEaSEOS5_.exit, %_ZNKSt14default_deleteIN5folly2io11StreamCodecEEclEPS2_.exit.i
  %.pre = load ptr, ptr %codec_, align 8
  br label %if.end

if.end:                                           ; preds = %_ZNSt10unique_ptrIN5folly2io11StreamCodecESt14default_deleteIS2_EED2Ev.exit, %entry
  %6 = phi ptr [ %.pre, %_ZNSt10unique_ptrIN5folly2io11StreamCodecESt14default_deleteIS2_EED2Ev.exit ], [ %0, %entry ]
  ret ptr %6
}